target datalayout = "e-m:e-p270:32:32-p271:32:32-p272:64:64-i64:64-i128:128-f80:128-n8:16:32:64-S128"
target triple = "x86_64-unknown-linux-gnu"

; Function Attrs: mustprogress nounwind uwtable
define noundef zeroext i1 @_ZN6icu_756number4impl18PatternStringUtils23ignoreRoundingIncrementEdi(double noundef %roundIncr, i32 noundef %maxFrac) #0 align 2 {
entry:
  %retval = alloca i1, align 1
  %roundIncr.addr = alloca double, align 8
  %maxFrac.addr = alloca i32, align 4
  %frac = alloca i32, align 4
  store double %roundIncr, ptr %roundIncr.addr, align 8
  store i32 %maxFrac, ptr %maxFrac.addr, align 4
  %0 = load i32, ptr %maxFrac.addr, align 4
  %cmp = icmp slt i32 %0, 0
  br i1 %cmp, label %if.then, label %if.end

if.then:                                          ; preds = %entry
  store i1 false, ptr %retval, align 1
  br label %return

if.end:                                           ; preds = %entry
  store i32 0, ptr %frac, align 4
  %1 = load double, ptr %roundIncr.addr, align 8
  %mul = fmul double %1, 2.000000e+00
  store double %mul, ptr %roundIncr.addr, align 8
  store i32 0, ptr %frac, align 4
  br label %for.cond

for.cond:                                         ; preds = %for.inc, %if.end
  %2 = load i32, ptr %frac, align 4
  %3 = load i32, ptr %maxFrac.addr, align 4
  %cmp1 = icmp sle i32 %2, %3
  br i1 %cmp1, label %land.rhs, label %land.end

land.rhs:                                         ; preds = %for.cond
  %4 = load double, ptr %roundIncr.addr, align 8
  %cmp2 = fcmp ole double %4, 1.000000e+00
  br label %land.end

land.end:                                         ; preds = %land.rhs, %for.cond
  %5 = phi i1 [ false, %for.cond ], [ %cmp2, %land.rhs ]
  br i1 %5, label %for.body, label %for.end

for.body:                                         ; preds = %land.end
  br label %for.inc

for.inc:                                          ; preds = %for.body
  %6 = load i32, ptr %frac, align 4
  %inc = add nsw i32 %6, 1
  store i32 %inc, ptr %frac, align 4
  %7 = load double, ptr %roundIncr.addr, align 8
  %mul3 = fmul double %7, 1.000000e+01
  store double %mul3, ptr %roundIncr.addr, align 8
  br label %for.cond, !llvm.loop !10

for.end:                                          ; preds = %land.end
  %8 = load i32, ptr %frac, align 4
  %9 = load i32, ptr %maxFrac.addr, align 4
  %cmp4 = icmp sgt i32 %8, %9
  store i1 %cmp4, ptr %retval, align 1
  br label %return

return:                                           ; preds = %for.end, %if.then
  %10 = load i1, ptr %retval, align 1
  ret i1 %10
}