; Function Attrs: mustprogress nofree norecurse nosync nounwind willreturn memory(none) uwtable
define noundef zeroext i1 @_ZN6icu_756number4impl18PatternStringUtils23ignoreRoundingIncrementEdi(double noundef %roundIncr, i32 noundef %maxFrac) local_unnamed_addr #6 align 2 {
entry:
  %cmp = icmp slt i32 %maxFrac, 0
  br i1 %cmp, label %return, label %if.end

if.end:                                           ; preds = %entry
  %mul = fmul double %roundIncr, 2.000000e+00
  %cmp27 = fcmp ugt double %mul, 1.000000e+00
  br i1 %cmp27, label %for.end, label %for.inc

for.inc:                                          ; preds = %if.end, %for.inc
  %frac.09 = phi i32 [ %inc, %for.inc ], [ 0, %if.end ]
  %roundIncr.addr.08 = phi double [ %mul3, %for.inc ], [ %mul, %if.end ]
  %inc = add nuw nsw i32 %frac.09, 1
  %mul3 = fmul double %roundIncr.addr.08, 1.000000e+01
  %cmp1 = icmp slt i32 %frac.09, %maxFrac
  %cmp2 = fcmp ole double %mul3, 1.000000e+00
  %0 = select i1 %cmp1, i1 %cmp2, i1 false
  br i1 %0, label %for.inc, label %for.end, !llvm.loop !10

for.end:                                          ; preds = %for.inc, %if.end
  %frac.0.lcssa = phi i32 [ 0, %if.end ], [ %inc, %for.inc ]
  %cmp4 = icmp sgt i32 %frac.0.lcssa, %maxFrac
  br label %return

return:                                           ; preds = %entry, %for.end
  %retval.0 = phi i1 [ %cmp4, %for.end ], [ false, %entry ]
  ret i1 %retval.0
}